target datalayout = "e-m:e-p270:32:32-p271:32:32-p272:64:64-i64:64-i128:128-f80:128-n8:16:32:64-S128"
target triple = "x86_64-pc-linux-gnu"

%"struct.(anonymous namespace)::CustomAutoGIL" = type { i32 }
%"struct.(anonymous namespace)::CustomAutoNoGIL" = type { ptr }

; Function Attrs: mustprogress nounwind uwtable
define internal void @_ZN12_GLOBAL__N_113CustomAutoGILD2Ev(ptr noundef nonnull align 4 dereferenceable(4) %0) unnamed_addr #5 align 2 personality ptr @__gxx_personality_v0 {
  %2 = alloca ptr, align 8
  store ptr %0, ptr %2, align 8, !tbaa !1320
  %3 = load ptr, ptr %2, align 8
  %4 = getelementptr inbounds nuw %"struct.(anonymous namespace)::CustomAutoGIL", ptr %3, i32 0, i32 0
  %5 = load i32, ptr %4, align 4, !tbaa !1322
  invoke void @PyGILState_Release(i32 noundef %5)
          to label %6 unwind label %7

6:                                                ; preds = %1
  ret void

7:                                                ; preds = %1
  %8 = landingpad { ptr, i32 }
          catch ptr null
  %9 = extractvalue { ptr, i32 } %8, 0
  call void @__clang_call_terminate(ptr %9) #27
  unreachable
}

; Function Attrs: mustprogress nounwind uwtable
define internal void @_ZN12_GLOBAL__N_115CustomAutoNoGILD2Ev(ptr noundef nonnull align 8 dereferenceable(8) %0) unnamed_addr #5 align 2 personality ptr @__gxx_personality_v0 {
  %2 = alloca ptr, align 8
  store ptr %0, ptr %2, align 8, !tbaa !1324
  %3 = load ptr, ptr %2, align 8
  %4 = getelementptr inbounds nuw %"struct.(anonymous namespace)::CustomAutoNoGIL", ptr %3, i32 0, i32 0
  %5 = load ptr, ptr %4, align 8, !tbaa !1326
  invoke void @PyEval_RestoreThread(ptr noundef %5)
          to label %6 unwind label %7

6:                                                ; preds = %1
  ret void

7:                                                ; preds = %1
  %8 = landingpad { ptr, i32 }
          catch ptr null
  %9 = extractvalue { ptr, i32 } %8, 0
  call void @__clang_call_terminate(ptr %9) #27
  unreachable
}

; Function Attrs: mustprogress uwtable
define internal void @_ZN12_GLOBAL__N_115CustomAutoNoGILC2Ev(ptr noundef nonnull align 8 dereferenceable(8) %0) unnamed_addr #4 align 2 {
  %2 = alloca ptr, align 8
  store ptr %0, ptr %2, align 8, !tbaa !1324
  %3 = load ptr, ptr %2, align 8
  %4 = getelementptr inbounds nuw %"struct.(anonymous namespace)::CustomAutoNoGIL", ptr %3, i32 0, i32 0
  %5 = call ptr @PyEval_SaveThread()
  store ptr %5, ptr %4, align 8, !tbaa !1326
  ret void
}

; Function Attrs: mustprogress uwtable
define internal void @_ZN12_GLOBAL__N_113CustomAutoGILC2Ev(ptr noundef nonnull align 4 dereferenceable(4) %0) unnamed_addr #4 align 2 {
  %2 = alloca ptr, align 8
  store ptr %0, ptr %2, align 8, !tbaa !1320
  %3 = load ptr, ptr %2, align 8
  %4 = getelementptr inbounds nuw %"struct.(anonymous namespace)::CustomAutoGIL", ptr %3, i32 0, i32 0
  %5 = call i32 @PyGILState_Ensure()
  store i32 %5, ptr %4, align 4, !tbaa !1322
  ret void
}

; Function Attrs: mustprogress uwtable
define internal void @_ZN12_GLOBAL__N_117gil_acquire_innerINS_13CustomAutoGILENS_15CustomAutoNoGILEEEvv() #4 personality ptr @__gxx_personality_v0 {
  %1 = alloca %"struct.(anonymous namespace)::CustomAutoGIL", align 4
  %2 = alloca %"struct.(anonymous namespace)::CustomAutoGIL", align 4
  %3 = alloca ptr, align 8
  %4 = alloca i32, align 4
  %5 = alloca %"struct.(anonymous namespace)::CustomAutoNoGIL", align 8
  call void @llvm.lifetime.start.p0(i64 4, ptr %1) #23
  call void @_ZN12_GLOBAL__N_113CustomAutoGILC2Ev(ptr noundef nonnull align 4 dereferenceable(4) %1)
  call void @llvm.lifetime.start.p0(i64 4, ptr %2) #23
  invoke void @_ZN12_GLOBAL__N_113CustomAutoGILC2Ev(ptr noundef nonnull align 4 dereferenceable(4) %2)
          to label %6 unwind label %8

6:                                                ; preds = %0
  call void @llvm.lifetime.start.p0(i64 8, ptr %5) #23
  invoke void @_ZN12_GLOBAL__N_115CustomAutoNoGILC2Ev(ptr noundef nonnull align 8 dereferenceable(8) %5)
          to label %7 unwind label %12

7:                                                ; preds = %6
  call void @_ZN12_GLOBAL__N_115CustomAutoNoGILD2Ev(ptr noundef nonnull align 8 dereferenceable(8) %5) #23
  call void @llvm.lifetime.end.p0(i64 8, ptr %5) #23
  call void @_ZN12_GLOBAL__N_113CustomAutoGILD2Ev(ptr noundef nonnull align 4 dereferenceable(4) %2) #23
  call void @llvm.lifetime.end.p0(i64 4, ptr %2) #23
  call void @_ZN12_GLOBAL__N_113CustomAutoGILD2Ev(ptr noundef nonnull align 4 dereferenceable(4) %1) #23
  call void @llvm.lifetime.end.p0(i64 4, ptr %1) #23
  ret void

8:                                                ; preds = %0
  %9 = landingpad { ptr, i32 }
          cleanup
  %10 = extractvalue { ptr, i32 } %9, 0
  store ptr %10, ptr %3, align 8
  %11 = extractvalue { ptr, i32 } %9, 1
  store i32 %11, ptr %4, align 4
  br label %16

12:                                               ; preds = %6
  %13 = landingpad { ptr, i32 }
          cleanup
  %14 = extractvalue { ptr, i32 } %13, 0
  store ptr %14, ptr %3, align 8
  %15 = extractvalue { ptr, i32 } %13, 1
  store i32 %15, ptr %4, align 4
  call void @llvm.lifetime.end.p0(i64 8, ptr %5) #23
  call void @_ZN12_GLOBAL__N_113CustomAutoGILD2Ev(ptr noundef nonnull align 4 dereferenceable(4) %2) #23
  br label %16

16:                                               ; preds = %12, %8
  call void @llvm.lifetime.end.p0(i64 4, ptr %2) #23
  call void @_ZN12_GLOBAL__N_113CustomAutoGILD2Ev(ptr noundef nonnull align 4 dereferenceable(4) %1) #23
  call void @llvm.lifetime.end.p0(i64 4, ptr %1) #23
  br label %17

17:                                               ; preds = %16
  %18 = load ptr, ptr %3, align 8
  %19 = load i32, ptr %4, align 4
  %20 = insertvalue { ptr, i32 } poison, ptr %18, 0
  %21 = insertvalue { ptr, i32 } %20, i32 %19, 1
  resume { ptr, i32 } %21
}