; Function Attrs: mustprogress uwtable
define internal void @_ZN12_GLOBAL__N_117gil_acquire_innerINS_13CustomAutoGILENS_15CustomAutoNoGILEEEvv() #5 personality ptr @__gxx_personality_v0 {
  %1 = tail call i32 @PyGILState_Ensure()
  %2 = invoke i32 @PyGILState_Ensure()
          to label %_ZN12_GLOBAL__N_113CustomAutoGILC2Ev.exit unwind label %13

_ZN12_GLOBAL__N_113CustomAutoGILC2Ev.exit:        ; preds = %0
  %3 = invoke ptr @PyEval_SaveThread()
          to label %_ZN12_GLOBAL__N_115CustomAutoNoGILC2Ev.exit unwind label %15

_ZN12_GLOBAL__N_115CustomAutoNoGILC2Ev.exit:      ; preds = %_ZN12_GLOBAL__N_113CustomAutoGILC2Ev.exit
  invoke void @PyEval_RestoreThread(ptr noundef %3)
          to label %_ZN12_GLOBAL__N_115CustomAutoNoGILD2Ev.exit unwind label %4

4:                                                ; preds = %_ZN12_GLOBAL__N_115CustomAutoNoGILC2Ev.exit
  %5 = landingpad { ptr, i32 }
          catch ptr null
  %6 = extractvalue { ptr, i32 } %5, 0
  tail call void @__clang_call_terminate(ptr %6) #28
  unreachable

_ZN12_GLOBAL__N_115CustomAutoNoGILD2Ev.exit:      ; preds = %_ZN12_GLOBAL__N_115CustomAutoNoGILC2Ev.exit
  invoke void @PyGILState_Release(i32 noundef %2)
          to label %_ZN12_GLOBAL__N_113CustomAutoGILD2Ev.exit unwind label %7

7:                                                ; preds = %_ZN12_GLOBAL__N_115CustomAutoNoGILD2Ev.exit
  %8 = landingpad { ptr, i32 }
          catch ptr null
  %9 = extractvalue { ptr, i32 } %8, 0
  tail call void @__clang_call_terminate(ptr %9) #28
  unreachable

_ZN12_GLOBAL__N_113CustomAutoGILD2Ev.exit:        ; preds = %_ZN12_GLOBAL__N_115CustomAutoNoGILD2Ev.exit
  invoke void @PyGILState_Release(i32 noundef %1)
          to label %_ZN12_GLOBAL__N_113CustomAutoGILD2Ev.exit7 unwind label %10

10:                                               ; preds = %_ZN12_GLOBAL__N_113CustomAutoGILD2Ev.exit
  %11 = landingpad { ptr, i32 }
          catch ptr null
  %12 = extractvalue { ptr, i32 } %11, 0
  tail call void @__clang_call_terminate(ptr %12) #28
  unreachable

_ZN12_GLOBAL__N_113CustomAutoGILD2Ev.exit7:       ; preds = %_ZN12_GLOBAL__N_113CustomAutoGILD2Ev.exit
  ret void

13:                                               ; preds = %0
  %14 = landingpad { ptr, i32 }
          cleanup
  br label %_ZN12_GLOBAL__N_113CustomAutoGILD2Ev.exit8

15:                                               ; preds = %_ZN12_GLOBAL__N_113CustomAutoGILC2Ev.exit
  %16 = landingpad { ptr, i32 }
          cleanup
  invoke void @PyGILState_Release(i32 noundef %2)
          to label %_ZN12_GLOBAL__N_113CustomAutoGILD2Ev.exit8 unwind label %17

17:                                               ; preds = %15
  %18 = landingpad { ptr, i32 }
          catch ptr null
  %19 = extractvalue { ptr, i32 } %18, 0
  tail call void @__clang_call_terminate(ptr %19) #28
  unreachable

_ZN12_GLOBAL__N_113CustomAutoGILD2Ev.exit8:       ; preds = %15, %13
  %.pn = phi { ptr, i32 } [ %14, %13 ], [ %16, %15 ]
  invoke void @PyGILState_Release(i32 noundef %1)
          to label %_ZN12_GLOBAL__N_113CustomAutoGILD2Ev.exit9 unwind label %20

20:                                               ; preds = %_ZN12_GLOBAL__N_113CustomAutoGILD2Ev.exit8
  %21 = landingpad { ptr, i32 }
          catch ptr null
  %22 = extractvalue { ptr, i32 } %21, 0
  tail call void @__clang_call_terminate(ptr %22) #28
  unreachable

_ZN12_GLOBAL__N_113CustomAutoGILD2Ev.exit9:       ; preds = %_ZN12_GLOBAL__N_113CustomAutoGILD2Ev.exit8
  resume { ptr, i32 } %.pn
}